; Function Attrs: mustprogress uwtable
define internal void @_ZN12_GLOBAL__N_113tactic2solver18congruence_explainEP4exprS2_(ptr dead_on_unwind noalias writable writeonly sret(%class.obj_ref.34) align 8 captures(none) initializes((0, 16)) %0, ptr noundef nonnull align 8 dereferenceable(225) %1, ptr noundef %2, ptr noundef %3) unnamed_addr #3 align 2 {
  %5 = load ptr, ptr %1, align 8, !tbaa !3
  %6 = getelementptr inbounds nuw i8, ptr %5, i64 72
  %7 = load ptr, ptr %6, align 8
  %8 = tail call noundef nonnull align 8 dereferenceable(976) ptr %7(ptr noundef nonnull align 8 dereferenceable(225) %1)
  %9 = tail call noundef ptr @_ZN11ast_manager6mk_appEiiP4exprS1_(ptr noundef nonnull align 8 dereferenceable(976) %8, i32 noundef 0, i32 noundef 2, ptr noundef %2, ptr noundef %3)
  %10 = load ptr, ptr %1, align 8, !tbaa !3
  %11 = getelementptr inbounds nuw i8, ptr %10, i64 72
  %12 = load ptr, ptr %11, align 8
  %13 = tail call noundef nonnull align 8 dereferenceable(976) ptr %12(ptr noundef nonnull align 8 dereferenceable(225) %1)
  store ptr %9, ptr %0, align 8, !tbaa !110
  %14 = getelementptr inbounds nuw i8, ptr %0, i64 8
  store ptr %13, ptr %14, align 8, !tbaa !6
  %.not.i.i = icmp eq ptr %9, null
  br i1 %.not.i.i, label %_ZN7obj_refI4expr11ast_managerEC2EPS0_RS1_.exit, label %_ZN11ast_manager7inc_refEP3ast.exit.i.i

_ZN11ast_manager7inc_refEP3ast.exit.i.i:          ; preds = %4
  %15 = getelementptr inbounds nuw i8, ptr %9, i64 8
  %16 = load i32, ptr %15, align 4, !tbaa !72
  %17 = add i32 %16, 1
  store i32 %17, ptr %15, align 4, !tbaa !72
  br label %_ZN7obj_refI4expr11ast_managerEC2EPS0_RS1_.exit

_ZN7obj_refI4expr11ast_managerEC2EPS0_RS1_.exit:  ; preds = %4, %_ZN11ast_manager7inc_refEP3ast.exit.i.i
  ret void
}